target datalayout = "e-m:e-p270:32:32-p271:32:32-p272:64:64-i64:64-i128:128-f80:128-n8:16:32:64-S128"
target triple = "x86_64-pc-linux-gnu"

%class.Sample_TileMesh = type <{ %class.Sample, i8, i8, [2 x i8], float, ptr, ptr, ptr, ptr, ptr, ptr, %struct.rcConfig, i32, i32, i32, float, i32, [3 x float], [3 x float], float, float, i32, [4 x i8] }>
%class.Sample = type { ptr, ptr, ptr, ptr, ptr, i8, float, float, float, float, float, float, float, float, float, float, float, float, float, i32, i8, i8, i8, ptr, [9 x ptr], ptr, %class.SampleDebugDraw }
%class.SampleDebugDraw = type { %class.DebugDrawGL }
%class.DebugDrawGL = type { %struct.duDebugDraw }
%struct.duDebugDraw = type { ptr }
%struct.rcConfig = type { i32, i32, i32, i32, float, float, [3 x float], [3 x float], float, i32, i32, i32, i32, float, i32, i32, i32, float, float }
%class.InputGeom = type { ptr, ptr, [3 x float], [3 x float], %struct.BuildSettings, i8, [1536 x float], [256 x float], [256 x i8], [256 x i8], [256 x i16], [256 x i32], i32, [256 x %struct.ConvexVolume], i32 }
%struct.BuildSettings = type { float, float, float, float, float, float, float, float, float, float, float, float, float, i32, [3 x float], [3 x float], float }
%struct.ConvexVolume = type { [36 x float], float, float, i32, i32 }

; Function Attrs: mustprogress nounwind uwtable
define linkonce_odr dso_local noundef ptr @_ZNK9InputGeom19getNavMeshBoundsMinEv(ptr noundef nonnull align 8 dereferenceable(50312) %0) #0 comdat align 2 {
  %2 = alloca ptr, align 8
  store ptr %0, ptr %2, align 8
  %3 = load ptr, ptr %2, align 8
  %4 = getelementptr inbounds %class.InputGeom, ptr %3, i32 0, i32 5
  %5 = load i8, ptr %4, align 4
  %6 = trunc i8 %5 to i1
  br i1 %6, label %7, label %10

7:                                                ; preds = %1
  %8 = getelementptr inbounds %class.InputGeom, ptr %3, i32 0, i32 4
  %9 = getelementptr inbounds %struct.BuildSettings, ptr %8, i32 0, i32 14
  br label %12

10:                                               ; preds = %1
  %11 = getelementptr inbounds %class.InputGeom, ptr %3, i32 0, i32 2
  br label %12

12:                                               ; preds = %10, %7
  %13 = phi ptr [ %9, %7 ], [ %11, %10 ]
  %14 = getelementptr inbounds [3 x float], ptr %13, i64 0, i64 0
  ret ptr %14
}

; Function Attrs: mustprogress uwtable
define dso_local void @_ZN15Sample_TileMesh10getTilePosEPKfRiS2_(ptr noundef nonnull align 8 dereferenceable(404) %0, ptr noundef %1, ptr noundef nonnull align 4 dereferenceable(4) %2, ptr noundef nonnull align 4 dereferenceable(4) %3) #3 align 2 {
  %5 = alloca ptr, align 8
  %6 = alloca ptr, align 8
  %7 = alloca ptr, align 8
  %8 = alloca ptr, align 8
  %9 = alloca ptr, align 8
  %10 = alloca float, align 4
  store ptr %0, ptr %5, align 8
  store ptr %1, ptr %6, align 8
  store ptr %2, ptr %7, align 8
  store ptr %3, ptr %8, align 8
  %11 = load ptr, ptr %5, align 8
  %12 = getelementptr inbounds %class.Sample, ptr %11, i32 0, i32 1
  %13 = load ptr, ptr %12, align 8
  %14 = icmp ne ptr %13, null
  br i1 %14, label %16, label %15

15:                                               ; preds = %4
  br label %47

16:                                               ; preds = %4
  %17 = getelementptr inbounds %class.Sample, ptr %11, i32 0, i32 1
  %18 = load ptr, ptr %17, align 8
  %19 = call noundef ptr @_ZNK9InputGeom19getNavMeshBoundsMinEv(ptr noundef nonnull align 8 dereferenceable(50312) %18)
  store ptr %19, ptr %9, align 8
  %20 = getelementptr inbounds %class.Sample_TileMesh, ptr %11, i32 0, i32 15
  %21 = load float, ptr %20, align 8
  %22 = getelementptr inbounds %class.Sample, ptr %11, i32 0, i32 6
  %23 = load float, ptr %22, align 4
  %24 = fmul float %21, %23
  store float %24, ptr %10, align 4
  %25 = load ptr, ptr %6, align 8
  %26 = getelementptr inbounds float, ptr %25, i64 0
  %27 = load float, ptr %26, align 4
  %28 = load ptr, ptr %9, align 8
  %29 = getelementptr inbounds float, ptr %28, i64 0
  %30 = load float, ptr %29, align 4
  %31 = fsub float %27, %30
  %32 = load float, ptr %10, align 4
  %33 = fdiv float %31, %32
  %34 = fptosi float %33 to i32
  %35 = load ptr, ptr %7, align 8
  store i32 %34, ptr %35, align 4
  %36 = load ptr, ptr %6, align 8
  %37 = getelementptr inbounds float, ptr %36, i64 2
  %38 = load float, ptr %37, align 4
  %39 = load ptr, ptr %9, align 8
  %40 = getelementptr inbounds float, ptr %39, i64 2
  %41 = load float, ptr %40, align 4
  %42 = fsub float %38, %41
  %43 = load float, ptr %10, align 4
  %44 = fdiv float %42, %43
  %45 = fptosi float %44 to i32
  %46 = load ptr, ptr %8, align 8
  store i32 %45, ptr %46, align 4
  br label %47

47:                                               ; preds = %16, %15
  ret void
}